target datalayout = "e-m:e-p270:32:32-p271:32:32-p272:64:64-i64:64-i128:128-f80:128-n8:16:32:64-S128"
target triple = "x86_64-pc-linux-gnu"

@out_len = internal global i64 0, align 8
@out_buf = internal global [16385 x i8] zeroinitializer, align 16

; Function Attrs: inlinehint nounwind uwtable
define internal void @_mi_memcpy(ptr noundef %0, ptr noundef %1, i64 noundef %2) #5 {
  %4 = alloca ptr, align 8
  %5 = alloca ptr, align 8
  %6 = alloca i64, align 8
  store ptr %0, ptr %4, align 8, !tbaa !18
  store ptr %1, ptr %5, align 8, !tbaa !18
  store i64 %2, ptr %6, align 8, !tbaa !7
  %7 = load ptr, ptr %4, align 8, !tbaa !18
  %8 = load ptr, ptr %5, align 8, !tbaa !18
  %9 = load i64, ptr %6, align 8, !tbaa !7
  call void @llvm.memcpy.p0.p0.i64(ptr align 1 %7, ptr align 1 %8, i64 %9, i1 false)
  ret void
}

; Function Attrs: nounwind uwtable
define internal void @mi_out_buf(ptr noundef %0, ptr noundef %1) #0 {
  %3 = alloca ptr, align 8
  %4 = alloca ptr, align 8
  %5 = alloca i64, align 8
  %6 = alloca i64, align 8
  %7 = alloca i32, align 4
  %8 = alloca i64, align 8
  %9 = alloca i64, align 8
  %10 = alloca i64, align 8
  store ptr %0, ptr %3, align 8, !tbaa !20
  store ptr %1, ptr %4, align 8, !tbaa !18
  %11 = load ptr, ptr %3, align 8, !tbaa !20
  %12 = icmp eq ptr %11, null
  br i1 %12, label %13, label %14

13:                                               ; preds = %2
  br label %50

14:                                               ; preds = %2
  %15 = load atomic i64, ptr @out_len monotonic, align 8
  store i64 %15, ptr %5, align 8
  %16 = load i64, ptr %5, align 8, !tbaa !7
  %17 = icmp uge i64 %16, 16384
  br i1 %17, label %18, label %19

18:                                               ; preds = %14
  br label %50

19:                                               ; preds = %14
  call void @llvm.lifetime.start.p0(i64 8, ptr %6) #12
  %20 = load ptr, ptr %3, align 8, !tbaa !20
  %21 = call i64 @_mi_strlen(ptr noundef %20) #11
  store i64 %21, ptr %6, align 8, !tbaa !7
  %22 = load i64, ptr %6, align 8, !tbaa !7
  %23 = icmp eq i64 %22, 0
  br i1 %23, label %24, label %25

24:                                               ; preds = %19
  store i32 1, ptr %7, align 4
  br label %48

25:                                               ; preds = %19
  call void @llvm.lifetime.start.p0(i64 8, ptr %8) #12
  %26 = load i64, ptr %6, align 8, !tbaa !7
  store i64 %26, ptr %9, align 8, !tbaa !7
  %27 = load i64, ptr %9, align 8
  %28 = atomicrmw add ptr @out_len, i64 %27 acq_rel, align 8
  store i64 %28, ptr %10, align 8
  %29 = load i64, ptr %10, align 8, !tbaa !7
  store i64 %29, ptr %8, align 8, !tbaa !7
  %30 = load i64, ptr %8, align 8, !tbaa !7
  %31 = icmp uge i64 %30, 16384
  br i1 %31, label %32, label %33

32:                                               ; preds = %25
  store i32 1, ptr %7, align 4
  br label %47

33:                                               ; preds = %25
  %34 = load i64, ptr %8, align 8, !tbaa !7
  %35 = load i64, ptr %6, align 8, !tbaa !7
  %36 = add i64 %34, %35
  %37 = icmp uge i64 %36, 16384
  br i1 %37, label %38, label %42

38:                                               ; preds = %33
  %39 = load i64, ptr %8, align 8, !tbaa !7
  %40 = sub i64 16384, %39
  %41 = sub i64 %40, 1
  store i64 %41, ptr %6, align 8, !tbaa !7
  br label %42

42:                                               ; preds = %38, %33
  %43 = load i64, ptr %8, align 8, !tbaa !7
  %44 = getelementptr inbounds nuw [16385 x i8], ptr @out_buf, i64 0, i64 %43
  %45 = load ptr, ptr %3, align 8, !tbaa !20
  %46 = load i64, ptr %6, align 8, !tbaa !7
  call void @_mi_memcpy(ptr noundef %44, ptr noundef %45, i64 noundef %46) #11
  store i32 0, ptr %7, align 4
  br label %47

47:                                               ; preds = %42, %32
  call void @llvm.lifetime.end.p0(i64 8, ptr %8) #12
  br label %48

48:                                               ; preds = %47, %24
  call void @llvm.lifetime.end.p0(i64 8, ptr %6) #12
  %49 = load i32, ptr %7, align 4
  switch i32 %49, label %51 [
    i32 0, label %50
    i32 1, label %50
  ]

50:                                               ; preds = %13, %18, %48, %48
  ret void

51:                                               ; preds = %48
  unreachable
}