; Function Attrs: nounwind uwtable
define internal void @mi_out_buf(ptr noundef %0, ptr readnone captures(none) %1) unnamed_addr #1 {
  %3 = icmp eq ptr %0, null
  br i1 %3, label %18, label %4

4:                                                ; preds = %2
  %5 = load atomic i64, ptr @out_len monotonic, align 8
  %6 = icmp ugt i64 %5, 16383
  br i1 %6, label %18, label %7

7:                                                ; preds = %4
  %8 = tail call i64 @_mi_strlen(ptr noundef nonnull %0) #16
  %9 = icmp eq i64 %8, 0
  br i1 %9, label %18, label %10

10:                                               ; preds = %7
  %11 = atomicrmw add ptr @out_len, i64 %8 acq_rel, align 8
  %12 = icmp ugt i64 %11, 16383
  br i1 %12, label %18, label %13

13:                                               ; preds = %10
  %14 = add i64 %11, %8
  %15 = icmp ugt i64 %14, 16383
  %16 = sub nuw nsw i64 16383, %11
  %spec.select = select i1 %15, i64 %16, i64 %8
  %17 = getelementptr inbounds nuw [16385 x i8], ptr @out_buf, i64 0, i64 %11
  tail call void @llvm.memcpy.p0.p0.i64(ptr nonnull align 1 %17, ptr nonnull readonly align 1 %0, i64 %spec.select, i1 false)
  br label %18

18:                                               ; preds = %7, %10, %13, %4, %2
  ret void
}